; Function Attrs: mustprogress nofree norecurse nosync nounwind willreturn memory(argmem: write) uwtable
define range(i32 0, 2) i32 @png_muldiv(ptr nocapture noundef writeonly %0, i32 noundef %1, i32 noundef %2, i32 noundef %3) local_unnamed_addr #11 {
  %.not = icmp eq i32 %3, 0
  br i1 %.not, label %20, label %5

5:                                                ; preds = %4
  %6 = icmp eq i32 %1, 0
  %7 = icmp eq i32 %2, 0
  %or.cond = or i1 %6, %7
  br i1 %or.cond, label %.sink.split, label %8

8:                                                ; preds = %5
  %9 = sitofp i32 %1 to double
  %10 = sitofp i32 %2 to double
  %11 = fmul double %9, %10
  %12 = sitofp i32 %3 to double
  %13 = fdiv double %11, %12
  %14 = fadd double %13, 5.000000e-01
  %15 = tail call double @llvm.floor.f64(double %14)
  %16 = fcmp ole double %15, 0x41DFFFFFFFC00000
  %17 = fcmp oge double %15, 0xC1E0000000000000
  %or.cond3 = and i1 %16, %17
  br i1 %or.cond3, label %18, label %20

18:                                               ; preds = %8
  %19 = fptosi double %15 to i32
  br label %.sink.split

.sink.split:                                      ; preds = %5, %18
  %.sink = phi i32 [ %19, %18 ], [ 0, %5 ]
  store i32 %.sink, ptr %0, align 4
  br label %20

20:                                               ; preds = %.sink.split, %4, %8
  %.0 = phi i32 [ 0, %8 ], [ 0, %4 ], [ 1, %.sink.split ]
  ret i32 %.0
}